; Function Attrs: nounwind uwtable
define hidden ptr @simplexml_export_node(ptr nocapture noundef readonly %0) #1 {
  %2 = load ptr, ptr %0, align 8
  %3 = getelementptr inbounds i8, ptr %2, i64 -96
  %4 = load ptr, ptr %3, align 8
  %.not = icmp eq ptr %4, null
  br i1 %.not, label %7, label %5

5:                                                ; preds = %1
  %6 = load ptr, ptr %4, align 8
  %.not8 = icmp eq ptr %6, null
  br i1 %.not8, label %7, label %8

7:                                                ; preds = %5, %1
  tail call void (ptr, ptr, ...) @zend_throw_error(ptr noundef null, ptr noundef nonnull @.str.1) #14
  br label %8

8:                                                ; preds = %5, %7
  %.0 = phi ptr [ null, %7 ], [ %6, %5 ]
  %9 = getelementptr inbounds i8, ptr %2, i64 -44
  %10 = load i32, ptr %9, align 4
  %.not6.i = icmp eq i32 %10, 0
  br i1 %.not6.i, label %php_sxe_get_first_node_non_destructive.exit, label %11

11:                                               ; preds = %8
  %12 = load ptr, ptr %3, align 8
  %.not.i.i = icmp eq ptr %12, null
  br i1 %.not.i.i, label %.thread.i.i, label %13

13:                                               ; preds = %11
  %14 = load ptr, ptr %12, align 8
  %.not14.i.i = icmp eq ptr %14, null
  br i1 %.not14.i.i, label %.thread.i.i, label %15

.thread.i.i:                                      ; preds = %13, %11
  tail call void (ptr, ptr, ...) @zend_throw_error(ptr noundef null, ptr noundef nonnull @.str.1) #14
  br label %php_sxe_get_first_node_non_destructive.exit

15:                                               ; preds = %13
  %16 = icmp ult i32 %10, 4
  br i1 %16, label %switch.lookup, label %20

switch.lookup:                                    ; preds = %15
  %switch.tableidx = add nsw i32 %10, -1
  %17 = sext i32 %switch.tableidx to i64
  %switch.gep = getelementptr inbounds [3 x i64], ptr @switch.table.sxe_get_prop_hash, i64 0, i64 %17
  %switch.load = load i64, ptr %switch.gep, align 8
  %18 = getelementptr inbounds i8, ptr %14, i64 %switch.load
  %19 = load ptr, ptr %18, align 8
  br label %20

20:                                               ; preds = %15, %switch.lookup
  %.1.i.i = phi ptr [ %14, %15 ], [ %19, %switch.lookup ]
  %21 = tail call fastcc ptr @php_sxe_iterator_fetch(ptr noundef nonnull %3, ptr noundef %.1.i.i, i32 noundef 0)
  br label %php_sxe_get_first_node_non_destructive.exit

php_sxe_get_first_node_non_destructive.exit:      ; preds = %8, %.thread.i.i, %20
  %.0.i = phi ptr [ %.0, %8 ], [ %21, %20 ], [ null, %.thread.i.i ]
  ret ptr %.0.i
}